; Function Attrs: mustprogress nounwind uwtable
define void @_ZN3g2o16OptimizableGraph6VertexD2Ev(ptr noundef nonnull align 8 dereferenceable(128) initializes((0, 8), (64, 72)) %0) unnamed_addr #7 align 2 {
  store ptr getelementptr inbounds nuw inrange(-16, 256) (i8, ptr @_ZTVN3g2o16OptimizableGraph6VertexE, i64 16), ptr %0, align 8, !tbaa !9
  %2 = getelementptr inbounds nuw i8, ptr %0, i64 64
  store ptr getelementptr inbounds nuw inrange(-16, 16) (i8, ptr @_ZTVN3g2o16OptimizableGraph6VertexE, i64 288), ptr %2, align 8, !tbaa !9
  %3 = getelementptr inbounds nuw i8, ptr %0, i64 120
  %4 = load ptr, ptr %3, align 8, !tbaa !33
  %5 = icmp eq ptr %4, null
  br i1 %5, label %10, label %6

6:                                                ; preds = %1
  %7 = load ptr, ptr %4, align 8, !tbaa !9
  %8 = getelementptr inbounds nuw i8, ptr %7, i64 8
  %9 = load ptr, ptr %8, align 8
  tail call void %9(ptr noundef nonnull align 8 dereferenceable(65) %4) #45
  br label %10

10:                                               ; preds = %6, %1
  %11 = getelementptr inbounds nuw i8, ptr %0, i64 88
  %12 = load ptr, ptr %11, align 8, !tbaa !34
  %13 = icmp eq ptr %12, null
  br i1 %13, label %18, label %14

14:                                               ; preds = %10
  %15 = load ptr, ptr %12, align 8, !tbaa !9
  %16 = getelementptr inbounds nuw i8, ptr %15, i64 8
  %17 = load ptr, ptr %16, align 8
  tail call void %17(ptr noundef nonnull align 8 dereferenceable(24) %12) #45
  br label %18

18:                                               ; preds = %14, %10
  store ptr getelementptr inbounds nuw inrange(-16, 16) (i8, ptr @_ZTVN3g2o10HyperGraph13DataContainerE, i64 16), ptr %2, align 8, !tbaa !9
  %19 = getelementptr inbounds nuw i8, ptr %0, i64 72
  %20 = load ptr, ptr %19, align 8, !tbaa !3
  %21 = icmp eq ptr %20, null
  br i1 %21, label %_ZN3g2o10HyperGraph13DataContainerD2Ev.exit, label %22

22:                                               ; preds = %18
  %23 = load ptr, ptr %20, align 8, !tbaa !9
  %24 = getelementptr inbounds nuw i8, ptr %23, i64 8
  %25 = load ptr, ptr %24, align 8
  tail call void %25(ptr noundef nonnull align 8 dereferenceable(24) %20) #45
  br label %_ZN3g2o10HyperGraph13DataContainerD2Ev.exit

_ZN3g2o10HyperGraph13DataContainerD2Ev.exit:      ; preds = %18, %22
  tail call void @_ZN3g2o10HyperGraph6VertexD2Ev(ptr noundef nonnull align 8 dereferenceable(64) %0) #45
  ret void
}